target datalayout = "e-m:e-p270:32:32-p271:32:32-p272:64:64-i64:64-i128:128-f80:128-n8:16:32:64-S128"
target triple = "x86_64-unknown-linux-gnu"

%"class.std::__cxx11::basic_string" = type { %"struct.std::__cxx11::basic_string<char>::_Alloc_hider", i64, %union.anon }
%"struct.std::__cxx11::basic_string<char>::_Alloc_hider" = type { ptr }
%union.anon = type { i64, [8 x i8] }
%"struct.proxygen::AcceptorConfiguration" = type <{ %"struct.wangle::ServerSocketConfig", i8, [7 x i8], %"class.std::chrono::duration", i32, [4 x i8], %"class.std::__cxx11::basic_string", %"class.std::__cxx11::list", i8, [7 x i8], %"class.std::vector.59", i32, [4 x i8], i64, i64, i64, i64, i8, [7 x i8] }>
%"struct.wangle::ServerSocketConfig" = type { %"class.std::__cxx11::basic_string", i32, i32, %"class.std::chrono::duration", %"class.std::chrono::duration", %"class.std::chrono::duration", %"class.folly::SocketAddress", %"struct.wangle::SSLCacheOptions", i8, %"struct.wangle::TLSTicketKeySeeds", %"class.std::vector.6", %"class.std::vector.11", i8, i32, i8, i8, i32, i32, i8, %"struct.wangle::FizzConfig", i8, %"class.std::unordered_map", %"class.std::map" }
%"class.folly::SocketAddress" = type <{ %"union.folly::SocketAddress::AddrStorage", i16, i8, [5 x i8] }>
%"union.folly::SocketAddress::AddrStorage" = type { %"struct.folly::SocketAddress::ExternalUnixAddr", [8 x i8] }
%"struct.folly::SocketAddress::ExternalUnixAddr" = type { ptr, i32 }
%"struct.wangle::SSLCacheOptions" = type { %"class.std::chrono::duration.2", i64, i64, %"class.std::chrono::duration.2" }
%"class.std::chrono::duration.2" = type { i64 }
%"struct.wangle::TLSTicketKeySeeds" = type { %"class.std::vector", %"class.std::vector", %"class.std::vector" }
%"class.std::vector" = type { %"struct.std::_Vector_base" }
%"struct.std::_Vector_base" = type { %"struct.std::_Vector_base<std::__cxx11::basic_string<char>, std::allocator<std::__cxx11::basic_string<char>>>::_Vector_impl" }
%"struct.std::_Vector_base<std::__cxx11::basic_string<char>, std::allocator<std::__cxx11::basic_string<char>>>::_Vector_impl" = type { %"struct.std::_Vector_base<std::__cxx11::basic_string<char>, std::allocator<std::__cxx11::basic_string<char>>>::_Vector_impl_data" }
%"struct.std::_Vector_base<std::__cxx11::basic_string<char>, std::allocator<std::__cxx11::basic_string<char>>>::_Vector_impl_data" = type { ptr, ptr, ptr }
%"class.std::vector.6" = type { %"struct.std::_Vector_base.7" }
%"struct.std::_Vector_base.7" = type { %"struct.std::_Vector_base<wangle::SSLContextConfig, std::allocator<wangle::SSLContextConfig>>::_Vector_impl" }
%"struct.std::_Vector_base<wangle::SSLContextConfig, std::allocator<wangle::SSLContextConfig>>::_Vector_impl" = type { %"struct.std::_Vector_base<wangle::SSLContextConfig, std::allocator<wangle::SSLContextConfig>>::_Vector_impl_data" }
%"struct.std::_Vector_base<wangle::SSLContextConfig, std::allocator<wangle::SSLContextConfig>>::_Vector_impl_data" = type { ptr, ptr, ptr }
%"class.std::vector.11" = type { %"struct.std::_Vector_base.12" }
%"struct.std::_Vector_base.12" = type { %"struct.std::_Vector_base<wangle::SNIConfig, std::allocator<wangle::SNIConfig>>::_Vector_impl" }
%"struct.std::_Vector_base<wangle::SNIConfig, std::allocator<wangle::SNIConfig>>::_Vector_impl" = type { %"struct.std::_Vector_base<wangle::SNIConfig, std::allocator<wangle::SNIConfig>>::_Vector_impl_data" }
%"struct.std::_Vector_base<wangle::SNIConfig, std::allocator<wangle::SNIConfig>>::_Vector_impl_data" = type { ptr, ptr, ptr }
%"struct.wangle::FizzConfig" = type { i8, %"class.std::vector.16", %"class.std::vector.21", %"class.std::vector.26", %"class.std::vector.31", %"class.std::vector.36", i8, i8, i8, i8, i8, i8, %"class.folly::Optional", %"class.folly::Optional", %"class.std::vector.42", %"struct.fizz::AsyncFizzBase::TransportOptions" }
%"class.std::vector.16" = type { %"struct.std::_Vector_base.17" }
%"struct.std::_Vector_base.17" = type { %"struct.std::_Vector_base<fizz::ProtocolVersion, std::allocator<fizz::ProtocolVersion>>::_Vector_impl" }
%"struct.std::_Vector_base<fizz::ProtocolVersion, std::allocator<fizz::ProtocolVersion>>::_Vector_impl" = type { %"struct.std::_Vector_base<fizz::ProtocolVersion, std::allocator<fizz::ProtocolVersion>>::_Vector_impl_data" }
%"struct.std::_Vector_base<fizz::ProtocolVersion, std::allocator<fizz::ProtocolVersion>>::_Vector_impl_data" = type { ptr, ptr, ptr }
%"class.std::vector.21" = type { %"struct.std::_Vector_base.22" }
%"struct.std::_Vector_base.22" = type { %"struct.std::_Vector_base<std::vector<fizz::CipherSuite>, std::allocator<std::vector<fizz::CipherSuite>>>::_Vector_impl" }
%"struct.std::_Vector_base<std::vector<fizz::CipherSuite>, std::allocator<std::vector<fizz::CipherSuite>>>::_Vector_impl" = type { %"struct.std::_Vector_base<std::vector<fizz::CipherSuite>, std::allocator<std::vector<fizz::CipherSuite>>>::_Vector_impl_data" }
%"struct.std::_Vector_base<std::vector<fizz::CipherSuite>, std::allocator<std::vector<fizz::CipherSuite>>>::_Vector_impl_data" = type { ptr, ptr, ptr }
%"class.std::vector.26" = type { %"struct.std::_Vector_base.27" }
%"struct.std::_Vector_base.27" = type { %"struct.std::_Vector_base<fizz::SignatureScheme, std::allocator<fizz::SignatureScheme>>::_Vector_impl" }
%"struct.std::_Vector_base<fizz::SignatureScheme, std::allocator<fizz::SignatureScheme>>::_Vector_impl" = type { %"struct.std::_Vector_base<fizz::SignatureScheme, std::allocator<fizz::SignatureScheme>>::_Vector_impl_data" }
%"struct.std::_Vector_base<fizz::SignatureScheme, std::allocator<fizz::SignatureScheme>>::_Vector_impl_data" = type { ptr, ptr, ptr }
%"class.std::vector.31" = type { %"struct.std::_Vector_base.32" }
%"struct.std::_Vector_base.32" = type { %"struct.std::_Vector_base<fizz::NamedGroup, std::allocator<fizz::NamedGroup>>::_Vector_impl" }
%"struct.std::_Vector_base<fizz::NamedGroup, std::allocator<fizz::NamedGroup>>::_Vector_impl" = type { %"struct.std::_Vector_base<fizz::NamedGroup, std::allocator<fizz::NamedGroup>>::_Vector_impl_data" }
%"struct.std::_Vector_base<fizz::NamedGroup, std::allocator<fizz::NamedGroup>>::_Vector_impl_data" = type { ptr, ptr, ptr }
%"class.std::vector.36" = type { %"struct.std::_Vector_base.37" }
%"struct.std::_Vector_base.37" = type { %"struct.std::_Vector_base<fizz::PskKeyExchangeMode, std::allocator<fizz::PskKeyExchangeMode>>::_Vector_impl" }
%"struct.std::_Vector_base<fizz::PskKeyExchangeMode, std::allocator<fizz::PskKeyExchangeMode>>::_Vector_impl" = type { %"struct.std::_Vector_base<fizz::PskKeyExchangeMode, std::allocator<fizz::PskKeyExchangeMode>>::_Vector_impl_data" }
%"struct.std::_Vector_base<fizz::PskKeyExchangeMode, std::allocator<fizz::PskKeyExchangeMode>>::_Vector_impl_data" = type { ptr, ptr, ptr }
%"class.folly::Optional" = type { %"struct.folly::Optional<unsigned short>::StorageTriviallyDestructible" }
%"struct.folly::Optional<unsigned short>::StorageTriviallyDestructible" = type <{ %union.anon.41, i8, i8 }>
%union.anon.41 = type { i16 }
%"class.std::vector.42" = type { %"struct.std::_Vector_base.43" }
%"struct.std::_Vector_base.43" = type { %"struct.std::_Vector_base<fizz::CertificateCompressionAlgorithm, std::allocator<fizz::CertificateCompressionAlgorithm>>::_Vector_impl" }
%"struct.std::_Vector_base<fizz::CertificateCompressionAlgorithm, std::allocator<fizz::CertificateCompressionAlgorithm>>::_Vector_impl" = type { %"struct.std::_Vector_base<fizz::CertificateCompressionAlgorithm, std::allocator<fizz::CertificateCompressionAlgorithm>>::_Vector_impl_data" }
%"struct.std::_Vector_base<fizz::CertificateCompressionAlgorithm, std::allocator<fizz::CertificateCompressionAlgorithm>>::_Vector_impl_data" = type { ptr, ptr, ptr }
%"struct.fizz::AsyncFizzBase::TransportOptions" = type { i8, i8, %"class.std::shared_ptr", i64, i64, ptr }
%"class.std::shared_ptr" = type { %"class.std::__shared_ptr" }
%"class.std::__shared_ptr" = type { ptr, %"class.std::__shared_count" }
%"class.std::__shared_count" = type { ptr }
%"class.std::unordered_map" = type { %"class.std::_Hashtable" }
%"class.std::_Hashtable" = type { ptr, i64, %"struct.std::__detail::_Hash_node_base", i64, %"struct.std::__detail::_Prime_rehash_policy", ptr }
%"struct.std::__detail::_Hash_node_base" = type { ptr }
%"struct.std::__detail::_Prime_rehash_policy" = type { float, i64 }
%"class.std::map" = type { %"class.std::_Rb_tree" }
%"class.std::_Rb_tree" = type { %"struct.std::_Rb_tree<folly::SocketOptionKey, std::pair<const folly::SocketOptionKey, int>, std::_Select1st<std::pair<const folly::SocketOptionKey, int>>, std::less<folly::SocketOptionKey>>::_Rb_tree_impl" }
%"struct.std::_Rb_tree<folly::SocketOptionKey, std::pair<const folly::SocketOptionKey, int>, std::_Select1st<std::pair<const folly::SocketOptionKey, int>>, std::less<folly::SocketOptionKey>>::_Rb_tree_impl" = type { %"struct.std::_Rb_tree_key_compare", %"struct.std::_Rb_tree_header" }
%"struct.std::_Rb_tree_key_compare" = type { %"struct.std::less" }
%"struct.std::less" = type { i8 }
%"struct.std::_Rb_tree_header" = type { %"struct.std::_Rb_tree_node_base", i64 }
%"struct.std::_Rb_tree_node_base" = type { i32, ptr, ptr, ptr }
%"class.std::chrono::duration" = type { i64 }
%"class.std::__cxx11::list" = type { %"class.std::__cxx11::_List_base" }
%"class.std::__cxx11::_List_base" = type { %"struct.std::__cxx11::_List_base<std::__cxx11::basic_string<char>, std::allocator<std::__cxx11::basic_string<char>>>::_List_impl" }
%"struct.std::__cxx11::_List_base<std::__cxx11::basic_string<char>, std::allocator<std::__cxx11::basic_string<char>>>::_List_impl" = type { %"struct.std::__detail::_List_node_header" }
%"struct.std::__detail::_List_node_header" = type { %"struct.std::__detail::_List_node_base", i64 }
%"struct.std::__detail::_List_node_base" = type { ptr, ptr }
%"class.std::vector.59" = type { %"struct.std::_Vector_base.60" }
%"struct.std::_Vector_base.60" = type { %"struct.std::_Vector_base<proxygen::HTTPSetting, std::allocator<proxygen::HTTPSetting>>::_Vector_impl" }
%"struct.std::_Vector_base<proxygen::HTTPSetting, std::allocator<proxygen::HTTPSetting>>::_Vector_impl" = type { %"struct.std::_Vector_base<proxygen::HTTPSetting, std::allocator<proxygen::HTTPSetting>>::_Vector_impl_data" }
%"struct.std::_Vector_base<proxygen::HTTPSetting, std::allocator<proxygen::HTTPSetting>>::_Vector_impl_data" = type { ptr, ptr, ptr }
%"class.std::shared_ptr.64" = type { %"class.std::__shared_ptr.65" }
%"class.std::__shared_ptr.65" = type { ptr, %"class.std::__shared_count" }
%"class.std::_Function_base" = type { %"union.std::_Any_data", ptr }
%"union.std::_Any_data" = type { %"union.std::_Nocopy_types" }
%"union.std::_Nocopy_types" = type { { i64, i64 } }
%"class.std::vector.94" = type { %"struct.std::_Vector_base.95" }
%"struct.std::_Vector_base.95" = type { %"struct.std::_Vector_base<proxygen::RequestHandlerFactory *, std::allocator<proxygen::RequestHandlerFactory *>>::_Vector_impl" }
%"struct.std::_Vector_base<proxygen::RequestHandlerFactory *, std::allocator<proxygen::RequestHandlerFactory *>>::_Vector_impl" = type { %"struct.std::_Vector_base<proxygen::RequestHandlerFactory *, std::allocator<proxygen::RequestHandlerFactory *>>::_Vector_impl_data" }
%"struct.std::_Vector_base<proxygen::RequestHandlerFactory *, std::allocator<proxygen::RequestHandlerFactory *>>::_Vector_impl_data" = type { ptr, ptr, ptr }
%"class.proxygen::HTTPServerAcceptor" = type { %"class.proxygen::HTTPSessionAcceptor", ptr, %"class.std::function.169", %"class.std::vector.94" }
%"class.proxygen::HTTPSessionAcceptor" = type { %"class.proxygen::HTTPAcceptor", %"class.proxygen::HTTPSessionBase::InfoCallback", ptr, i8, %"class.std::unique_ptr.158", %"class.std::shared_ptr.64", %"class.std::shared_ptr.166", ptr }
%"class.proxygen::HTTPAcceptor" = type { %"class.wangle::Acceptor", %"struct.proxygen::AcceptorConfiguration", %"class.std::unique_ptr.144", %"class.std::unique_ptr.152" }
%"class.wangle::Acceptor" = type { %"class.folly::AsyncServerSocket::AcceptCallback", %"class.wangle::ConnectionManager::Callback", %"class.folly::AsyncUDPServerSocket::Callback", ptr, %"struct.wangle::ServerSocketConfig", %"class.std::map", %"class.std::shared_ptr.108", %"class.wangle::SecurityProtocolContextManager", %"class.wangle::TLSPlaintextPeekingCallback", %"class.wangle::DefaultToSSLPeekingCallback", %"class.wangle::DefaultToFizzPeekingCallback", %"class.std::unique_ptr.125", %"class.std::shared_ptr.133", %"struct.wangle::TLSTicketKeySeeds", %"class.std::shared_ptr.136", i32, i64, i8, %"class.std::chrono::duration", %"class.wangle::Acceptor::AcceptObserverList" }
%"class.folly::AsyncServerSocket::AcceptCallback" = type { ptr }
%"class.wangle::ConnectionManager::Callback" = type { ptr }
%"class.folly::AsyncUDPServerSocket::Callback" = type { ptr }
%"class.std::shared_ptr.108" = type { %"class.std::__shared_ptr.109" }
%"class.std::__shared_ptr.109" = type { ptr, %"class.std::__shared_count" }
%"class.wangle::SecurityProtocolContextManager" = type { %"class.std::vector.111", i64 }
%"class.std::vector.111" = type { %"struct.std::_Vector_base.112" }
%"struct.std::_Vector_base.112" = type { %"struct.std::_Vector_base<wangle::PeekingAcceptorHandshakeHelper::PeekCallback *, std::allocator<wangle::PeekingAcceptorHandshakeHelper::PeekCallback *>>::_Vector_impl" }
%"struct.std::_Vector_base<wangle::PeekingAcceptorHandshakeHelper::PeekCallback *, std::allocator<wangle::PeekingAcceptorHandshakeHelper::PeekCallback *>>::_Vector_impl" = type { %"struct.std::_Vector_base<wangle::PeekingAcceptorHandshakeHelper::PeekCallback *, std::allocator<wangle::PeekingAcceptorHandshakeHelper::PeekCallback *>>::_Vector_impl_data" }
%"struct.std::_Vector_base<wangle::PeekingAcceptorHandshakeHelper::PeekCallback *, std::allocator<wangle::PeekingAcceptorHandshakeHelper::PeekCallback *>>::_Vector_impl_data" = type { ptr, ptr, ptr }
%"class.wangle::TLSPlaintextPeekingCallback" = type { %"class.wangle::PeekingAcceptorHandshakeHelper::PeekCallback" }
%"class.wangle::PeekingAcceptorHandshakeHelper::PeekCallback" = type { ptr, i64 }
%"class.wangle::DefaultToSSLPeekingCallback" = type { %"class.wangle::PeekingAcceptorHandshakeHelper::PeekCallback" }
%"class.wangle::DefaultToFizzPeekingCallback" = type { %"class.wangle::PeekingAcceptorHandshakeHelper::PeekCallback", %"class.std::shared_ptr.116", %"class.std::shared_ptr.119", %"class.wangle::FizzHandshakeOptions", %"struct.fizz::AsyncFizzBase::TransportOptions" }
%"class.std::shared_ptr.116" = type { %"class.std::__shared_ptr.117" }
%"class.std::__shared_ptr.117" = type { ptr, %"class.std::__shared_count" }
%"class.std::shared_ptr.119" = type { %"class.std::__shared_ptr.120" }
%"class.std::__shared_ptr.120" = type { ptr, %"class.std::__shared_count" }
%"class.wangle::FizzHandshakeOptions" = type <{ %"class.std::shared_ptr.122", ptr, i8, i8, [6 x i8] }>
%"class.std::shared_ptr.122" = type { %"class.std::__shared_ptr.123" }
%"class.std::__shared_ptr.123" = type { ptr, %"class.std::__shared_count" }
%"class.std::unique_ptr.125" = type { %"struct.std::__uniq_ptr_data.126" }
%"struct.std::__uniq_ptr_data.126" = type { %"class.std::__uniq_ptr_impl.127" }
%"class.std::__uniq_ptr_impl.127" = type { %"class.std::tuple.128" }
%"class.std::tuple.128" = type { %"struct.std::_Tuple_impl.129" }
%"struct.std::_Tuple_impl.129" = type { %"struct.std::_Head_base.132" }
%"struct.std::_Head_base.132" = type { ptr }
%"class.std::shared_ptr.133" = type { %"class.std::__shared_ptr.134" }
%"class.std::__shared_ptr.134" = type { ptr, %"class.std::__shared_count" }
%"class.std::shared_ptr.136" = type { %"class.std::__shared_ptr.137" }
%"class.std::__shared_ptr.137" = type { ptr, %"class.std::__shared_count" }
%"class.wangle::Acceptor::AcceptObserverList" = type { ptr, %"class.std::vector.139" }
%"class.std::vector.139" = type { %"struct.std::_Vector_base.140" }
%"struct.std::_Vector_base.140" = type { %"struct.std::_Vector_base<wangle::AcceptObserver *, std::allocator<wangle::AcceptObserver *>>::_Vector_impl" }
%"struct.std::_Vector_base<wangle::AcceptObserver *, std::allocator<wangle::AcceptObserver *>>::_Vector_impl" = type { %"struct.std::_Vector_base<wangle::AcceptObserver *, std::allocator<wangle::AcceptObserver *>>::_Vector_impl_data" }
%"struct.std::_Vector_base<wangle::AcceptObserver *, std::allocator<wangle::AcceptObserver *>>::_Vector_impl_data" = type { ptr, ptr, ptr }
%"class.std::unique_ptr.144" = type { %"struct.std::__uniq_ptr_data.145" }
%"struct.std::__uniq_ptr_data.145" = type { %"class.std::__uniq_ptr_impl.146" }
%"class.std::__uniq_ptr_impl.146" = type { %"class.std::tuple.147" }
%"class.std::tuple.147" = type { %"struct.std::_Tuple_impl.148" }
%"struct.std::_Tuple_impl.148" = type { %"struct.std::_Head_base.151" }
%"struct.std::_Head_base.151" = type { ptr }
%"class.std::unique_ptr.152" = type { %"struct.std::__uniq_ptr_data.153" }
%"struct.std::__uniq_ptr_data.153" = type { %"class.std::__uniq_ptr_impl.154" }
%"class.std::__uniq_ptr_impl.154" = type { %"class.std::tuple.155" }
%"class.std::tuple.155" = type { %"struct.std::_Tuple_impl.156" }
%"struct.std::_Tuple_impl.156" = type { %"struct.std::_Head_base.157" }
%"struct.std::_Head_base.157" = type { ptr }
%"class.proxygen::HTTPSessionBase::InfoCallback" = type { ptr }
%"class.std::unique_ptr.158" = type { %"struct.std::__uniq_ptr_data.159" }
%"struct.std::__uniq_ptr_data.159" = type { %"class.std::__uniq_ptr_impl.160" }
%"class.std::__uniq_ptr_impl.160" = type { %"class.std::tuple.161" }
%"class.std::tuple.161" = type { %"struct.std::_Tuple_impl.162" }
%"struct.std::_Tuple_impl.162" = type { %"struct.std::_Head_base.165" }
%"struct.std::_Head_base.165" = type { ptr }
%"class.std::shared_ptr.166" = type { %"class.std::__shared_ptr.167" }
%"class.std::__shared_ptr.167" = type { ptr, %"class.std::__shared_count" }
%"class.std::function.169" = type { %"class.std::_Function_base", ptr }

; Function Attrs: mustprogress nounwind uwtable
define linkonce_odr noundef zeroext i1 @_ZNKSt14_Function_base8_M_emptyEv(ptr noundef nonnull align 8 dereferenceable(24) %this) #4 comdat align 2 {
entry:
  %this.addr = alloca ptr, align 8
  store ptr %this, ptr %this.addr, align 8
  %this1 = load ptr, ptr %this.addr, align 8
  %_M_manager = getelementptr inbounds %"class.std::_Function_base", ptr %this1, i32 0, i32 1
  %0 = load ptr, ptr %_M_manager, align 8
  %tobool = icmp ne ptr %0, null
  %lnot = xor i1 %tobool, true
  ret i1 %lnot
}

; Function Attrs: mustprogress uwtable
define linkonce_odr void @_ZNKSt8functionIFvvEEclEv(ptr noundef nonnull align 8 dereferenceable(32) %this) #5 comdat align 2 {
entry:
  %this.addr = alloca ptr, align 8
  store ptr %this, ptr %this.addr, align 8
  %this1 = load ptr, ptr %this.addr, align 8
  %call = call noundef zeroext i1 @_ZNKSt14_Function_base8_M_emptyEv(ptr noundef nonnull align 8 dereferenceable(24) %this1)
  br i1 %call, label %if.then, label %if.end

if.then:                                          ; preds = %entry
  call void @_ZSt25__throw_bad_function_callv() #23
  unreachable

if.end:                                           ; preds = %entry
  %_M_invoker = getelementptr inbounds %"class.std::function.169", ptr %this1, i32 0, i32 1
  %0 = load ptr, ptr %_M_invoker, align 8
  %_M_functor = getelementptr inbounds %"class.std::_Function_base", ptr %this1, i32 0, i32 0
  call void %0(ptr noundef nonnull align 8 dereferenceable(16) %_M_functor)
  ret void
}

; Function Attrs: mustprogress nounwind uwtable
define linkonce_odr noundef zeroext i1 @_ZNKSt8functionIFvvEEcvbEv(ptr noundef nonnull align 8 dereferenceable(32) %this) #4 comdat align 2 {
entry:
  %this.addr = alloca ptr, align 8
  store ptr %this, ptr %this.addr, align 8
  %this1 = load ptr, ptr %this.addr, align 8
  %call = call noundef zeroext i1 @_ZNKSt14_Function_base8_M_emptyEv(ptr noundef nonnull align 8 dereferenceable(24) %this1)
  %lnot = xor i1 %call, true
  ret i1 %lnot
}

; Function Attrs: mustprogress uwtable
define void @_ZN8proxygen18HTTPServerAcceptor20onConnectionsDrainedEv(ptr noundef nonnull align 8 dereferenceable(1992) %this) unnamed_addr #5 align 2 {
entry:
  %this.addr = alloca ptr, align 8
  store ptr %this, ptr %this.addr, align 8
  %this1 = load ptr, ptr %this.addr, align 8
  %completionCallback_ = getelementptr inbounds %"class.proxygen::HTTPServerAcceptor", ptr %this1, i32 0, i32 2
  %call = call noundef zeroext i1 @_ZNKSt8functionIFvvEEcvbEv(ptr noundef nonnull align 8 dereferenceable(32) %completionCallback_) #3
  br i1 %call, label %if.then, label %if.end

if.then:                                          ; preds = %entry
  %completionCallback_2 = getelementptr inbounds %"class.proxygen::HTTPServerAcceptor", ptr %this1, i32 0, i32 2
  call void @_ZNKSt8functionIFvvEEclEv(ptr noundef nonnull align 8 dereferenceable(32) %completionCallback_2)
  br label %if.end

if.end:                                           ; preds = %if.then, %entry
  ret void
}