; Function Attrs: mustprogress uwtable
define void @_ZN8proxygen18HTTPServerAcceptor20onConnectionsDrainedEv(ptr noundef nonnull align 8 dereferenceable(1992) %this) unnamed_addr #3 align 2 {
entry:
  %_M_manager.i.i = getelementptr inbounds i8, ptr %this, i64 1952
  %0 = load ptr, ptr %_M_manager.i.i, align 8
  %tobool.not.i.i.not = icmp eq ptr %0, null
  br i1 %tobool.not.i.i.not, label %if.end, label %_ZNKSt8functionIFvvEEclEv.exit

_ZNKSt8functionIFvvEEclEv.exit:                   ; preds = %entry
  %completionCallback_ = getelementptr inbounds i8, ptr %this, i64 1936
  %_M_invoker.i = getelementptr inbounds i8, ptr %this, i64 1960
  %1 = load ptr, ptr %_M_invoker.i, align 8
  tail call void %1(ptr noundef nonnull align 8 dereferenceable(16) %completionCallback_)
  br label %if.end

if.end:                                           ; preds = %_ZNKSt8functionIFvvEEclEv.exit, %entry
  ret void
}